target datalayout = "e-m:e-p270:32:32-p271:32:32-p272:64:64-i64:64-i128:128-f80:128-n8:16:32:64-S128"
target triple = "x86_64-pc-linux-gnu"

%struct.GetByteContext = type { ptr, ptr, ptr }

; Function Attrs: alwaysinline nounwind uwtable
define internal i32 @bytestream_get_byte(ptr noundef %0) #5 {
  %2 = alloca ptr, align 8
  store ptr %0, ptr %2, align 8, !tbaa !62
  %3 = load ptr, ptr %2, align 8, !tbaa !62
  %4 = load ptr, ptr %3, align 8, !tbaa !43
  %5 = getelementptr inbounds i8, ptr %4, i64 1
  store ptr %5, ptr %3, align 8, !tbaa !43
  %6 = load ptr, ptr %2, align 8, !tbaa !62
  %7 = load ptr, ptr %6, align 8, !tbaa !43
  %8 = getelementptr inbounds i8, ptr %7, i64 -1
  %9 = getelementptr inbounds i8, ptr %8, i64 0
  %10 = load i8, ptr %9, align 1, !tbaa !46
  %11 = zext i8 %10 to i32
  ret i32 %11
}

; Function Attrs: alwaysinline nounwind uwtable
define internal i32 @bytestream2_get_byteu(ptr noundef %0) #5 {
  %2 = alloca ptr, align 8
  store ptr %0, ptr %2, align 8, !tbaa !56
  %3 = load ptr, ptr %2, align 8, !tbaa !56
  %4 = getelementptr inbounds nuw %struct.GetByteContext, ptr %3, i32 0, i32 0
  %5 = call i32 @bytestream_get_byte(ptr noundef %4)
  ret i32 %5
}

; Function Attrs: alwaysinline nounwind uwtable
define internal i32 @bytestream_get_le16(ptr noundef %0) #5 {
  %2 = alloca ptr, align 8
  store ptr %0, ptr %2, align 8, !tbaa !62
  %3 = load ptr, ptr %2, align 8, !tbaa !62
  %4 = load ptr, ptr %3, align 8, !tbaa !43
  %5 = getelementptr inbounds i8, ptr %4, i64 2
  store ptr %5, ptr %3, align 8, !tbaa !43
  %6 = load ptr, ptr %2, align 8, !tbaa !62
  %7 = load ptr, ptr %6, align 8, !tbaa !43
  %8 = getelementptr inbounds i8, ptr %7, i64 -2
  %9 = load i16, ptr %8, align 1, !tbaa !46
  %10 = zext i16 %9 to i32
  ret i32 %10
}

; Function Attrs: alwaysinline nounwind uwtable
define internal i32 @bytestream2_get_byte(ptr noundef %0) #5 {
  %2 = alloca i32, align 4
  %3 = alloca ptr, align 8
  store ptr %0, ptr %3, align 8, !tbaa !56
  %4 = load ptr, ptr %3, align 8, !tbaa !56
  %5 = getelementptr inbounds nuw %struct.GetByteContext, ptr %4, i32 0, i32 1
  %6 = load ptr, ptr %5, align 8, !tbaa !61
  %7 = load ptr, ptr %3, align 8, !tbaa !56
  %8 = getelementptr inbounds nuw %struct.GetByteContext, ptr %7, i32 0, i32 0
  %9 = load ptr, ptr %8, align 8, !tbaa !58
  %10 = ptrtoint ptr %6 to i64
  %11 = ptrtoint ptr %9 to i64
  %12 = sub i64 %10, %11
  %13 = icmp slt i64 %12, 1
  br i1 %13, label %14, label %20

14:                                               ; preds = %1
  %15 = load ptr, ptr %3, align 8, !tbaa !56
  %16 = getelementptr inbounds nuw %struct.GetByteContext, ptr %15, i32 0, i32 1
  %17 = load ptr, ptr %16, align 8, !tbaa !61
  %18 = load ptr, ptr %3, align 8, !tbaa !56
  %19 = getelementptr inbounds nuw %struct.GetByteContext, ptr %18, i32 0, i32 0
  store ptr %17, ptr %19, align 8, !tbaa !58
  store i32 0, ptr %2, align 4
  br label %23

20:                                               ; preds = %1
  %21 = load ptr, ptr %3, align 8, !tbaa !56
  %22 = call i32 @bytestream2_get_byteu(ptr noundef %21)
  store i32 %22, ptr %2, align 4
  br label %23

23:                                               ; preds = %20, %14
  %24 = load i32, ptr %2, align 4
  ret i32 %24
}

; Function Attrs: alwaysinline nounwind uwtable
define internal i32 @bytestream2_get_le16u(ptr noundef %0) #5 {
  %2 = alloca ptr, align 8
  store ptr %0, ptr %2, align 8, !tbaa !56
  %3 = load ptr, ptr %2, align 8, !tbaa !56
  %4 = getelementptr inbounds nuw %struct.GetByteContext, ptr %3, i32 0, i32 0
  %5 = call i32 @bytestream_get_le16(ptr noundef %4)
  ret i32 %5
}

; Function Attrs: alwaysinline nounwind uwtable
define internal i32 @bytestream2_get_bytes_left(ptr noundef %0) #5 {
  %2 = alloca ptr, align 8
  store ptr %0, ptr %2, align 8, !tbaa !56
  %3 = load ptr, ptr %2, align 8, !tbaa !56
  %4 = getelementptr inbounds nuw %struct.GetByteContext, ptr %3, i32 0, i32 1
  %5 = load ptr, ptr %4, align 8, !tbaa !61
  %6 = load ptr, ptr %2, align 8, !tbaa !56
  %7 = getelementptr inbounds nuw %struct.GetByteContext, ptr %6, i32 0, i32 0
  %8 = load ptr, ptr %7, align 8, !tbaa !58
  %9 = ptrtoint ptr %5 to i64
  %10 = ptrtoint ptr %8 to i64
  %11 = sub i64 %9, %10
  %12 = trunc i64 %11 to i32
  ret i32 %12
}

; Function Attrs: alwaysinline nounwind uwtable
define internal i32 @bytestream2_get_le16(ptr noundef %0) #5 {
  %2 = alloca i32, align 4
  %3 = alloca ptr, align 8
  store ptr %0, ptr %3, align 8, !tbaa !56
  %4 = load ptr, ptr %3, align 8, !tbaa !56
  %5 = getelementptr inbounds nuw %struct.GetByteContext, ptr %4, i32 0, i32 1
  %6 = load ptr, ptr %5, align 8, !tbaa !61
  %7 = load ptr, ptr %3, align 8, !tbaa !56
  %8 = getelementptr inbounds nuw %struct.GetByteContext, ptr %7, i32 0, i32 0
  %9 = load ptr, ptr %8, align 8, !tbaa !58
  %10 = ptrtoint ptr %6 to i64
  %11 = ptrtoint ptr %9 to i64
  %12 = sub i64 %10, %11
  %13 = icmp slt i64 %12, 2
  br i1 %13, label %14, label %20

14:                                               ; preds = %1
  %15 = load ptr, ptr %3, align 8, !tbaa !56
  %16 = getelementptr inbounds nuw %struct.GetByteContext, ptr %15, i32 0, i32 1
  %17 = load ptr, ptr %16, align 8, !tbaa !61
  %18 = load ptr, ptr %3, align 8, !tbaa !56
  %19 = getelementptr inbounds nuw %struct.GetByteContext, ptr %18, i32 0, i32 0
  store ptr %17, ptr %19, align 8, !tbaa !58
  store i32 0, ptr %2, align 4
  br label %23

20:                                               ; preds = %1
  %21 = load ptr, ptr %3, align 8, !tbaa !56
  %22 = call i32 @bytestream2_get_le16u(ptr noundef %21)
  store i32 %22, ptr %2, align 4
  br label %23

23:                                               ; preds = %20, %14
  %24 = load i32, ptr %2, align 4
  ret i32 %24
}

; Function Attrs: nounwind uwtable
define internal i32 @decode_dsw1(ptr noundef %0, ptr noundef %1, i32 noundef %2, i32 noundef %3) #1 {
  %5 = alloca i32, align 4
  %6 = alloca ptr, align 8
  %7 = alloca ptr, align 8
  %8 = alloca i32, align 4
  %9 = alloca i32, align 4
  %10 = alloca ptr, align 8
  %11 = alloca ptr, align 8
  %12 = alloca i32, align 4
  %13 = alloca i32, align 4
  %14 = alloca i32, align 4
  %15 = alloca i32, align 4
  %16 = alloca i32, align 4
  %17 = alloca i32, align 4
  %18 = alloca i32, align 4
  store ptr %0, ptr %6, align 8, !tbaa !56
  store ptr %1, ptr %7, align 8, !tbaa !43
  store i32 %2, ptr %8, align 4, !tbaa !47
  store i32 %3, ptr %9, align 4, !tbaa !47
  call void @llvm.lifetime.start.p0(i64 8, ptr %10) #8
  %19 = load ptr, ptr %7, align 8, !tbaa !43
  store ptr %19, ptr %10, align 8, !tbaa !43
  call void @llvm.lifetime.start.p0(i64 8, ptr %11) #8
  %20 = load ptr, ptr %7, align 8, !tbaa !43
  %21 = load i32, ptr %8, align 4, !tbaa !47
  %22 = load i32, ptr %9, align 4, !tbaa !47
  %23 = mul nsw i32 %21, %22
  %24 = sext i32 %23 to i64
  %25 = getelementptr inbounds i8, ptr %20, i64 %24
  store ptr %25, ptr %11, align 8, !tbaa !43
  call void @llvm.lifetime.start.p0(i64 4, ptr %12) #8
  store i32 65536, ptr %12, align 4, !tbaa !47
  call void @llvm.lifetime.start.p0(i64 4, ptr %13) #8
  store i32 0, ptr %13, align 4, !tbaa !47
  call void @llvm.lifetime.start.p0(i64 4, ptr %14) #8
  call void @llvm.lifetime.start.p0(i64 4, ptr %15) #8
  call void @llvm.lifetime.start.p0(i64 4, ptr %16) #8
  call void @llvm.lifetime.start.p0(i64 4, ptr %17) #8
  %26 = load ptr, ptr %6, align 8, !tbaa !56
  %27 = call i32 @bytestream2_get_le16(ptr noundef %26)
  store i32 %27, ptr %17, align 4, !tbaa !47
  br label %28

28:                                               ; preds = %116, %4
  %29 = load i32, ptr %17, align 4, !tbaa !47
  %30 = add nsw i32 %29, -1
  store i32 %30, ptr %17, align 4, !tbaa !47
  %31 = icmp ne i32 %29, 0
  br i1 %31, label %32, label %119

32:                                               ; preds = %28
  %33 = load ptr, ptr %6, align 8, !tbaa !56
  %34 = call i32 @bytestream2_get_bytes_left(ptr noundef %33)
  %35 = icmp slt i32 %34, 2
  br i1 %35, label %36, label %37

36:                                               ; preds = %32
  store i32 -1094995529, ptr %5, align 4
  store i32 1, ptr %18, align 4
  br label %120

37:                                               ; preds = %32
  %38 = load i32, ptr %12, align 4, !tbaa !47
  %39 = icmp eq i32 %38, 65536
  br i1 %39, label %40, label %43

40:                                               ; preds = %37
  %41 = load ptr, ptr %6, align 8, !tbaa !56
  %42 = call i32 @bytestream2_get_le16u(ptr noundef %41)
  store i32 %42, ptr %13, align 4, !tbaa !47
  store i32 1, ptr %12, align 4, !tbaa !47
  br label %43

43:                                               ; preds = %40, %37
  %44 = load ptr, ptr %11, align 8, !tbaa !43
  %45 = load ptr, ptr %7, align 8, !tbaa !43
  %46 = ptrtoint ptr %44 to i64
  %47 = ptrtoint ptr %45 to i64
  %48 = sub i64 %46, %47
  %49 = icmp slt i64 %48, 2
  br i1 %49, label %50, label %51

50:                                               ; preds = %43
  store i32 -1094995529, ptr %5, align 4
  store i32 1, ptr %18, align 4
  br label %120

51:                                               ; preds = %43
  %52 = load i32, ptr %13, align 4, !tbaa !47
  %53 = load i32, ptr %12, align 4, !tbaa !47
  %54 = and i32 %52, %53
  %55 = icmp ne i32 %54, 0
  br i1 %55, label %56, label %92

56:                                               ; preds = %51
  %57 = load ptr, ptr %6, align 8, !tbaa !56
  %58 = call i32 @bytestream2_get_le16(ptr noundef %57)
  store i32 %58, ptr %14, align 4, !tbaa !47
  %59 = load i32, ptr %14, align 4, !tbaa !47
  %60 = and i32 %59, 8191
  %61 = shl i32 %60, 1
  store i32 %61, ptr %15, align 4, !tbaa !47
  %62 = load i32, ptr %14, align 4, !tbaa !47
  %63 = ashr i32 %62, 13
  %64 = add nsw i32 %63, 2
  %65 = shl i32 %64, 1
  store i32 %65, ptr %16, align 4, !tbaa !47
  %66 = load ptr, ptr %7, align 8, !tbaa !43
  %67 = load ptr, ptr %10, align 8, !tbaa !43
  %68 = ptrtoint ptr %66 to i64
  %69 = ptrtoint ptr %67 to i64
  %70 = sub i64 %68, %69
  %71 = load i32, ptr %15, align 4, !tbaa !47
  %72 = sext i32 %71 to i64
  %73 = icmp slt i64 %70, %72
  br i1 %73, label %83, label %74

74:                                               ; preds = %56
  %75 = load ptr, ptr %11, align 8, !tbaa !43
  %76 = load ptr, ptr %7, align 8, !tbaa !43
  %77 = ptrtoint ptr %75 to i64
  %78 = ptrtoint ptr %76 to i64
  %79 = sub i64 %77, %78
  %80 = load i32, ptr %16, align 4, !tbaa !47
  %81 = sext i32 %80 to i64
  %82 = icmp slt i64 %79, %81
  br i1 %82, label %83, label %84

83:                                               ; preds = %74, %56
  store i32 -1094995529, ptr %5, align 4
  store i32 1, ptr %18, align 4
  br label %120

84:                                               ; preds = %74
  %85 = load ptr, ptr %7, align 8, !tbaa !43
  %86 = load i32, ptr %15, align 4, !tbaa !47
  %87 = load i32, ptr %16, align 4, !tbaa !47
  call void @av_memcpy_backptr(ptr noundef %85, i32 noundef %86, i32 noundef %87)
  %88 = load i32, ptr %16, align 4, !tbaa !47
  %89 = load ptr, ptr %7, align 8, !tbaa !43
  %90 = sext i32 %88 to i64
  %91 = getelementptr inbounds i8, ptr %89, i64 %90
  store ptr %91, ptr %7, align 8, !tbaa !43
  br label %116

92:                                               ; preds = %51
  %93 = load i32, ptr %13, align 4, !tbaa !47
  %94 = load i32, ptr %12, align 4, !tbaa !47
  %95 = shl i32 %94, 1
  %96 = and i32 %93, %95
  %97 = icmp ne i32 %96, 0
  br i1 %97, label %98, label %104

98:                                               ; preds = %92
  %99 = load ptr, ptr %6, align 8, !tbaa !56
  %100 = call i32 @bytestream2_get_le16(ptr noundef %99)
  %101 = load ptr, ptr %7, align 8, !tbaa !43
  %102 = zext i32 %100 to i64
  %103 = getelementptr inbounds nuw i8, ptr %101, i64 %102
  store ptr %103, ptr %7, align 8, !tbaa !43
  br label %115

104:                                              ; preds = %92
  %105 = load ptr, ptr %6, align 8, !tbaa !56
  %106 = call i32 @bytestream2_get_byte(ptr noundef %105)
  %107 = trunc i32 %106 to i8
  %108 = load ptr, ptr %7, align 8, !tbaa !43
  %109 = getelementptr inbounds nuw i8, ptr %108, i32 1
  store ptr %109, ptr %7, align 8, !tbaa !43
  store i8 %107, ptr %108, align 1, !tbaa !46
  %110 = load ptr, ptr %6, align 8, !tbaa !56
  %111 = call i32 @bytestream2_get_byte(ptr noundef %110)
  %112 = trunc i32 %111 to i8
  %113 = load ptr, ptr %7, align 8, !tbaa !43
  %114 = getelementptr inbounds nuw i8, ptr %113, i32 1
  store ptr %114, ptr %7, align 8, !tbaa !43
  store i8 %112, ptr %113, align 1, !tbaa !46
  br label %115

115:                                              ; preds = %104, %98
  br label %116

116:                                              ; preds = %115, %84
  %117 = load i32, ptr %12, align 4, !tbaa !47
  %118 = shl i32 %117, 2
  store i32 %118, ptr %12, align 4, !tbaa !47
  br label %28, !llvm.loop !73

119:                                              ; preds = %28
  store i32 0, ptr %5, align 4
  store i32 1, ptr %18, align 4
  br label %120

120:                                              ; preds = %119, %83, %50, %36
  call void @llvm.lifetime.end.p0(i64 4, ptr %17) #8
  call void @llvm.lifetime.end.p0(i64 4, ptr %16) #8
  call void @llvm.lifetime.end.p0(i64 4, ptr %15) #8
  call void @llvm.lifetime.end.p0(i64 4, ptr %14) #8
  call void @llvm.lifetime.end.p0(i64 4, ptr %13) #8
  call void @llvm.lifetime.end.p0(i64 4, ptr %12) #8
  call void @llvm.lifetime.end.p0(i64 8, ptr %11) #8
  call void @llvm.lifetime.end.p0(i64 8, ptr %10) #8
  %121 = load i32, ptr %5, align 4
  ret i32 %121
}