; Function Attrs: nounwind uwtable
define internal range(i32 -1094995529, 1) i32 @decode_dsw1(ptr noundef captures(none) %0, ptr noundef %1, i32 noundef %2, i32 noundef %3) #1 {
  %5 = mul nsw i32 %3, %2
  %6 = sext i32 %5 to i64
  %7 = getelementptr inbounds i8, ptr %1, i64 %6
  %8 = getelementptr inbounds nuw i8, ptr %0, i64 8
  %9 = load ptr, ptr %8, align 8, !tbaa !41
  %10 = load ptr, ptr %0, align 8, !tbaa !38
  %11 = ptrtoint ptr %9 to i64
  %12 = ptrtoint ptr %10 to i64
  %13 = sub i64 %11, %12
  %14 = icmp slt i64 %13, 2
  br i1 %14, label %bytestream2_get_le16.exit.thread, label %bytestream2_get_le16.exit

bytestream2_get_le16.exit.thread:                 ; preds = %4
  store ptr %9, ptr %0, align 8, !tbaa !38
  br label %._crit_edge

bytestream2_get_le16.exit:                        ; preds = %4
  %15 = getelementptr inbounds nuw i8, ptr %10, i64 2
  store ptr %15, ptr %0, align 8, !tbaa !42
  %16 = load i16, ptr %10, align 1, !tbaa !34
  %.not53 = icmp eq i16 %16, 0
  br i1 %.not53, label %._crit_edge, label %.lr.ph

.lr.ph:                                           ; preds = %bytestream2_get_le16.exit
  %17 = zext i16 %16 to i32
  %18 = ptrtoint ptr %7 to i64
  %19 = ptrtoint ptr %1 to i64
  br label %20

20:                                               ; preds = %.lr.ph, %95
  %.in = phi i32 [ %17, %.lr.ph ], [ %21, %95 ]
  %.03756 = phi ptr [ %1, %.lr.ph ], [ %.1, %95 ]
  %.03855 = phi i32 [ 65536, %.lr.ph ], [ %96, %95 ]
  %.04054 = phi i32 [ 0, %.lr.ph ], [ %.141, %95 ]
  %21 = add nsw i32 %.in, -1
  %22 = load ptr, ptr %8, align 8, !tbaa !41
  %23 = load ptr, ptr %0, align 8, !tbaa !38
  %24 = ptrtoint ptr %22 to i64
  %25 = ptrtoint ptr %23 to i64
  %26 = sub i64 %24, %25
  %27 = trunc i64 %26 to i32
  %28 = icmp slt i32 %27, 2
  br i1 %28, label %._crit_edge, label %29

29:                                               ; preds = %20
  %30 = icmp eq i32 %.03855, 65536
  br i1 %30, label %31, label %35

31:                                               ; preds = %29
  %32 = getelementptr inbounds nuw i8, ptr %23, i64 2
  store ptr %32, ptr %0, align 8, !tbaa !42
  %33 = load i16, ptr %23, align 1, !tbaa !34
  %34 = zext i16 %33 to i32
  br label %35

35:                                               ; preds = %31, %29
  %36 = phi ptr [ %32, %31 ], [ %23, %29 ]
  %.141 = phi i32 [ %34, %31 ], [ %.04054, %29 ]
  %.139 = phi i32 [ 1, %31 ], [ %.03855, %29 ]
  %37 = ptrtoint ptr %.03756 to i64
  %38 = sub i64 %18, %37
  %39 = icmp slt i64 %38, 2
  br i1 %39, label %._crit_edge, label %40

40:                                               ; preds = %35
  %41 = and i32 %.139, %.141
  %.not44 = icmp eq i32 %41, 0
  br i1 %.not44, label %64, label %42

42:                                               ; preds = %40
  %43 = ptrtoint ptr %36 to i64
  %44 = sub i64 %24, %43
  %45 = icmp slt i64 %44, 2
  br i1 %45, label %46, label %47

46:                                               ; preds = %42
  store ptr %22, ptr %0, align 8, !tbaa !38
  br label %bytestream2_get_le16.exit47

47:                                               ; preds = %42
  %48 = getelementptr inbounds nuw i8, ptr %36, i64 2
  store ptr %48, ptr %0, align 8, !tbaa !42
  %49 = load i16, ptr %36, align 1, !tbaa !34
  %50 = zext i16 %49 to i32
  br label %bytestream2_get_le16.exit47

bytestream2_get_le16.exit47:                      ; preds = %46, %47
  %.0.i46 = phi i32 [ 0, %46 ], [ %50, %47 ]
  %51 = shl nuw nsw i32 %.0.i46, 1
  %52 = and i32 %51, 16382
  %53 = lshr i32 %.0.i46, 12
  %54 = and i32 %53, 14
  %55 = add nuw nsw i32 %54, 4
  %56 = sub i64 %37, %19
  %57 = zext nneg i32 %52 to i64
  %58 = icmp slt i64 %56, %57
  br i1 %58, label %._crit_edge, label %59

59:                                               ; preds = %bytestream2_get_le16.exit47
  %60 = zext nneg i32 %55 to i64
  %61 = icmp samesign ult i64 %38, %60
  br i1 %61, label %._crit_edge, label %62

62:                                               ; preds = %59
  tail call void @av_memcpy_backptr(ptr noundef %.03756, i32 noundef %52, i32 noundef %55) #12
  %63 = getelementptr inbounds nuw i8, ptr %.03756, i64 %60
  br label %95

64:                                               ; preds = %40
  %65 = shl i32 %.139, 1
  %66 = and i32 %65, %.141
  %.not45 = icmp eq i32 %66, 0
  %67 = ptrtoint ptr %36 to i64
  %68 = sub i64 %24, %67
  br i1 %.not45, label %77, label %69

69:                                               ; preds = %64
  %70 = icmp slt i64 %68, 2
  br i1 %70, label %71, label %72

71:                                               ; preds = %69
  store ptr %22, ptr %0, align 8, !tbaa !38
  br label %bytestream2_get_le16.exit49

72:                                               ; preds = %69
  %73 = getelementptr inbounds nuw i8, ptr %36, i64 2
  store ptr %73, ptr %0, align 8, !tbaa !42
  %74 = load i16, ptr %36, align 1, !tbaa !34
  %75 = zext i16 %74 to i64
  br label %bytestream2_get_le16.exit49

bytestream2_get_le16.exit49:                      ; preds = %71, %72
  %.0.i48 = phi i64 [ 0, %71 ], [ %75, %72 ]
  %76 = getelementptr inbounds nuw i8, ptr %.03756, i64 %.0.i48
  br label %95

77:                                               ; preds = %64
  %78 = icmp slt i64 %68, 1
  br i1 %78, label %79, label %80

79:                                               ; preds = %77
  store ptr %22, ptr %0, align 8, !tbaa !38
  br label %bytestream2_get_byte.exit

80:                                               ; preds = %77
  %81 = getelementptr inbounds nuw i8, ptr %36, i64 1
  store ptr %81, ptr %0, align 8, !tbaa !42
  %82 = load i8, ptr %36, align 1, !tbaa !34
  br label %bytestream2_get_byte.exit

bytestream2_get_byte.exit:                        ; preds = %79, %80
  %.0.i50 = phi i8 [ 0, %79 ], [ %82, %80 ]
  %83 = getelementptr inbounds nuw i8, ptr %.03756, i64 1
  store i8 %.0.i50, ptr %.03756, align 1, !tbaa !34
  %84 = load ptr, ptr %8, align 8, !tbaa !41
  %85 = load ptr, ptr %0, align 8, !tbaa !38
  %86 = ptrtoint ptr %84 to i64
  %87 = ptrtoint ptr %85 to i64
  %88 = sub i64 %86, %87
  %89 = icmp slt i64 %88, 1
  br i1 %89, label %90, label %91

90:                                               ; preds = %bytestream2_get_byte.exit
  store ptr %84, ptr %0, align 8, !tbaa !38
  br label %bytestream2_get_byte.exit52

91:                                               ; preds = %bytestream2_get_byte.exit
  %92 = getelementptr inbounds nuw i8, ptr %85, i64 1
  store ptr %92, ptr %0, align 8, !tbaa !42
  %93 = load i8, ptr %85, align 1, !tbaa !34
  br label %bytestream2_get_byte.exit52

bytestream2_get_byte.exit52:                      ; preds = %90, %91
  %.0.i51 = phi i8 [ 0, %90 ], [ %93, %91 ]
  %94 = getelementptr inbounds nuw i8, ptr %.03756, i64 2
  store i8 %.0.i51, ptr %83, align 1, !tbaa !34
  br label %95

95:                                               ; preds = %bytestream2_get_le16.exit49, %bytestream2_get_byte.exit52, %62
  %.1 = phi ptr [ %63, %62 ], [ %76, %bytestream2_get_le16.exit49 ], [ %94, %bytestream2_get_byte.exit52 ]
  %96 = shl i32 %.139, 2
  %.not = icmp eq i32 %21, 0
  br i1 %.not, label %._crit_edge, label %20, !llvm.loop !59

._crit_edge:                                      ; preds = %20, %35, %59, %bytestream2_get_le16.exit47, %95, %bytestream2_get_le16.exit.thread, %bytestream2_get_le16.exit
  %.036 = phi i32 [ 0, %bytestream2_get_le16.exit ], [ 0, %bytestream2_get_le16.exit.thread ], [ 0, %95 ], [ -1094995529, %bytestream2_get_le16.exit47 ], [ -1094995529, %59 ], [ -1094995529, %35 ], [ -1094995529, %20 ]
  ret i32 %.036
}